; Function Attrs: mustprogress nofree norecurse nosync nounwind willreturn memory(read, inaccessiblemem: none) uwtable
define dso_local i64 @acct_policy_get_preemptable_time(ptr noundef readonly captures(none) %0) local_unnamed_addr #9 {
  %2 = getelementptr inbounds nuw i8, ptr %0, i64 912
  %3 = load i64, ptr %2, align 8
  %4 = getelementptr inbounds nuw i8, ptr %0, i64 768
  %5 = load ptr, ptr %4, align 8
  %.not.i = icmp eq ptr %5, null
  %6 = getelementptr inbounds nuw i8, ptr %0, i64 672
  %7 = load ptr, ptr %6, align 8
  %.not27.i = icmp eq ptr %7, null
  br i1 %.not.i, label %17, label %8

8:                                                ; preds = %1
  br i1 %.not27.i, label %acct_policy_set_qos_order.exit.thread36, label %9

9:                                                ; preds = %8
  %10 = getelementptr inbounds nuw i8, ptr %7, i64 296
  %11 = load ptr, ptr %10, align 8
  %.not30.i = icmp eq ptr %11, null
  br i1 %.not30.i, label %acct_policy_set_qos_order.exit.thread36, label %12

12:                                               ; preds = %9
  %13 = getelementptr inbounds nuw i8, ptr %5, i64 20
  %14 = load i32, ptr %13, align 4
  %15 = and i32 %14, 128
  %.not31.i = icmp eq i32 %15, 0
  %spec.select = select i1 %.not31.i, ptr %11, ptr %5
  %16 = icmp eq ptr %11, %5
  br i1 %16, label %acct_policy_set_qos_order.exit.thread36, label %acct_policy_set_qos_order.exit

17:                                               ; preds = %1
  br i1 %.not27.i, label %.thread41, label %18

18:                                               ; preds = %17
  %19 = getelementptr inbounds nuw i8, ptr %7, i64 296
  %20 = load ptr, ptr %19, align 8
  %.not28.i = icmp eq ptr %20, null
  br i1 %.not28.i, label %.thread41, label %acct_policy_set_qos_order.exit.thread36

acct_policy_set_qos_order.exit:                   ; preds = %12
  %21 = select i1 %.not31.i, ptr %5, ptr %11
  %22 = getelementptr inbounds nuw i8, ptr %21, i64 292
  %23 = load i32, ptr %22, align 4
  br label %acct_policy_set_qos_order.exit.thread36

acct_policy_set_qos_order.exit.thread36:          ; preds = %12, %18, %9, %8, %acct_policy_set_qos_order.exit
  %spec.select.pn = phi ptr [ %spec.select, %acct_policy_set_qos_order.exit ], [ %5, %9 ], [ %5, %8 ], [ %20, %18 ], [ %spec.select, %12 ]
  %24 = phi i32 [ %23, %acct_policy_set_qos_order.exit ], [ -1, %9 ], [ -1, %8 ], [ -1, %18 ], [ -1, %12 ]
  %.in = getelementptr inbounds nuw i8, ptr %spec.select.pn, i64 292
  %25 = load i32, ptr %.in, align 4
  %.not18 = icmp eq i32 %25, -1
  br i1 %.not18, label %29, label %26

26:                                               ; preds = %acct_policy_set_qos_order.exit.thread36
  %27 = zext i32 %25 to i64
  %28 = add nsw i64 %3, %27
  br label %37

29:                                               ; preds = %acct_policy_set_qos_order.exit.thread36
  %.not19 = icmp eq i32 %24, -1
  br i1 %.not19, label %.thread41, label %30

30:                                               ; preds = %29
  %31 = zext i32 %24 to i64
  %32 = add nsw i64 %3, %31
  br label %37

.thread41:                                        ; preds = %18, %17, %29
  %33 = load i32, ptr getelementptr inbounds nuw (i8, ptr @slurm_conf, i64 792), align 8
  %.not20 = icmp eq i32 %33, -1
  br i1 %.not20, label %37, label %34

34:                                               ; preds = %.thread41
  %35 = zext i32 %33 to i64
  %36 = add nsw i64 %3, %35
  br label %37

37:                                               ; preds = %.thread41, %34, %30, %26
  %.0 = phi i64 [ %28, %26 ], [ %32, %30 ], [ %36, %34 ], [ %3, %.thread41 ]
  ret i64 %.0
}